; Function Attrs: mustprogress uwtable
define void @_ZN3gmx25AbstractAnalysisArrayData13setXAxisValueEif(ptr noundef nonnull align 8 dereferenceable(94) %0, i32 noundef %1, float noundef %2) local_unnamed_addr #1 align 2 personality ptr @__gxx_personality_v0 {
  %4 = getelementptr inbounds i8, ptr %0, i64 93
  %5 = load i8, ptr %4, align 1
  %6 = trunc i8 %5 to i1
  br i1 %6, label %7, label %8

7:                                                ; preds = %3
  tail call void @_ZN3gmx8internal13assertHandlerEPKcS2_S2_S2_i(ptr noundef nonnull @.str.13, ptr noundef nonnull @.str.14, ptr noundef nonnull @"__PRETTY_FUNCTION__._ZZN3gmx25AbstractAnalysisArrayData13setXAxisValueEifENK3$_0clEv", ptr noundef nonnull @.str.3, i32 noundef 137) #16
  unreachable

8:                                                ; preds = %3
  %9 = getelementptr inbounds i8, ptr %0, i64 16
  %10 = load i32, ptr %9, align 8
  %11 = icmp sgt i32 %10, 0
  br i1 %11, label %12, label %16

12:                                               ; preds = %8
  %13 = icmp sgt i32 %1, -1
  %14 = icmp ugt i32 %10, %1
  %or.cond = and i1 %13, %14
  br i1 %or.cond, label %._ZNSt6vectorIfSaIfEE6resizeEm.exit_crit_edge, label %15

._ZNSt6vectorIfSaIfEE6resizeEm.exit_crit_edge:    ; preds = %12
  %.pre = zext nneg i32 %1 to i64
  br label %_ZNSt6vectorIfSaIfEE6resizeEm.exit

15:                                               ; preds = %12
  tail call void @_ZN3gmx8internal13assertHandlerEPKcS2_S2_S2_i(ptr noundef nonnull @.str.15, ptr noundef nonnull @.str.16, ptr noundef nonnull @"__PRETTY_FUNCTION__._ZZN3gmx25AbstractAnalysisArrayData13setXAxisValueEifENK3$_0clEv", ptr noundef nonnull @.str.3, i32 noundef 140) #16
  unreachable

16:                                               ; preds = %8
  %17 = sext i32 %1 to i64
  %18 = getelementptr inbounds i8, ptr %0, i64 64
  %19 = getelementptr inbounds i8, ptr %0, i64 72
  %20 = load ptr, ptr %19, align 8
  %21 = load ptr, ptr %18, align 8
  %22 = ptrtoint ptr %20 to i64
  %23 = ptrtoint ptr %21 to i64
  %24 = sub i64 %22, %23
  %25 = ashr exact i64 %24, 2
  %.not = icmp sgt i64 %25, %17
  br i1 %.not, label %_ZNSt6vectorIfSaIfEE6resizeEm.exit, label %26

26:                                               ; preds = %16
  %27 = add nsw i32 %1, 1
  %28 = sext i32 %27 to i64
  %29 = icmp ult i64 %25, %28
  br i1 %29, label %30, label %32

30:                                               ; preds = %26
  %31 = sub nsw i64 %28, %25
  tail call void @_ZNSt6vectorIfSaIfEE17_M_default_appendEm(ptr noundef nonnull align 8 dereferenceable(24) %18, i64 noundef %31)
  br label %_ZNSt6vectorIfSaIfEE6resizeEm.exit

32:                                               ; preds = %26
  %33 = icmp ugt i64 %25, %28
  br i1 %33, label %34, label %_ZNSt6vectorIfSaIfEE6resizeEm.exit

34:                                               ; preds = %32
  %35 = getelementptr inbounds float, ptr %21, i64 %28
  %.not.i.i = icmp eq ptr %20, %35
  br i1 %.not.i.i, label %_ZNSt6vectorIfSaIfEE6resizeEm.exit, label %36

36:                                               ; preds = %34
  store ptr %35, ptr %19, align 8
  br label %_ZNSt6vectorIfSaIfEE6resizeEm.exit

_ZNSt6vectorIfSaIfEE6resizeEm.exit:               ; preds = %._ZNSt6vectorIfSaIfEE6resizeEm.exit_crit_edge, %36, %34, %32, %30, %16
  %.pre-phi = phi i64 [ %.pre, %._ZNSt6vectorIfSaIfEE6resizeEm.exit_crit_edge ], [ %17, %36 ], [ %17, %34 ], [ %17, %32 ], [ %17, %30 ], [ %17, %16 ]
  %37 = getelementptr inbounds i8, ptr %0, i64 92
  store i8 0, ptr %37, align 4
  %38 = getelementptr inbounds i8, ptr %0, i64 88
  store float 0.000000e+00, ptr %38, align 8
  %39 = getelementptr inbounds i8, ptr %0, i64 64
  %40 = load ptr, ptr %39, align 8
  %41 = getelementptr inbounds float, ptr %40, i64 %.pre-phi
  store float %2, ptr %41, align 4
  ret void
}